target datalayout = "e-m:e-p270:32:32-p271:32:32-p272:64:64-i64:64-i128:128-f80:128-n8:16:32:64-S128"
target triple = "x86_64-pc-linux-gnu"

%"class.std::__cxx11::basic_string" = type { %"struct.std::__cxx11::basic_string<char>::_Alloc_hider", i64, %union.anon }
%"struct.std::__cxx11::basic_string<char>::_Alloc_hider" = type { ptr }
%union.anon = type { i64, [8 x i8] }
%"class.OpenColorIO_v2_5dev::FixedFunctionOpData" = type { %"class.OpenColorIO_v2_5dev::OpData", i32, %"class.std::vector.9" }
%"class.OpenColorIO_v2_5dev::OpData" = type { ptr, %"class.std::mutex", %"class.OpenColorIO_v2_5dev::FormatMetadataImpl" }
%"class.std::mutex" = type { %"class.std::__mutex_base" }
%"class.std::__mutex_base" = type { %union.pthread_mutex_t }
%union.pthread_mutex_t = type { %struct.__pthread_mutex_s }
%struct.__pthread_mutex_s = type { i32, i32, i32, i32, i32, i16, i16, %struct.__pthread_internal_list }
%struct.__pthread_internal_list = type { ptr, ptr }
%"class.OpenColorIO_v2_5dev::FormatMetadataImpl" = type { %"class.OpenColorIO_v2_5dev::FormatMetadata", %"class.std::__cxx11::basic_string", %"class.std::__cxx11::basic_string", %"class.std::vector", %"class.std::vector.4" }
%"class.OpenColorIO_v2_5dev::FormatMetadata" = type { ptr }
%"class.std::vector" = type { %"struct.std::_Vector_base" }
%"struct.std::_Vector_base" = type { %"struct.std::_Vector_base<std::pair<std::__cxx11::basic_string<char>, std::__cxx11::basic_string<char>>, std::allocator<std::pair<std::__cxx11::basic_string<char>, std::__cxx11::basic_string<char>>>>::_Vector_impl" }
%"struct.std::_Vector_base<std::pair<std::__cxx11::basic_string<char>, std::__cxx11::basic_string<char>>, std::allocator<std::pair<std::__cxx11::basic_string<char>, std::__cxx11::basic_string<char>>>>::_Vector_impl" = type { %"struct.std::_Vector_base<std::pair<std::__cxx11::basic_string<char>, std::__cxx11::basic_string<char>>, std::allocator<std::pair<std::__cxx11::basic_string<char>, std::__cxx11::basic_string<char>>>>::_Vector_impl_data" }
%"struct.std::_Vector_base<std::pair<std::__cxx11::basic_string<char>, std::__cxx11::basic_string<char>>, std::allocator<std::pair<std::__cxx11::basic_string<char>, std::__cxx11::basic_string<char>>>>::_Vector_impl_data" = type { ptr, ptr, ptr }
%"class.std::vector.4" = type { %"struct.std::_Vector_base.5" }
%"struct.std::_Vector_base.5" = type { %"struct.std::_Vector_base<OpenColorIO_v2_5dev::FormatMetadataImpl, std::allocator<OpenColorIO_v2_5dev::FormatMetadataImpl>>::_Vector_impl" }
%"struct.std::_Vector_base<OpenColorIO_v2_5dev::FormatMetadataImpl, std::allocator<OpenColorIO_v2_5dev::FormatMetadataImpl>>::_Vector_impl" = type { %"struct.std::_Vector_base<OpenColorIO_v2_5dev::FormatMetadataImpl, std::allocator<OpenColorIO_v2_5dev::FormatMetadataImpl>>::_Vector_impl_data" }
%"struct.std::_Vector_base<OpenColorIO_v2_5dev::FormatMetadataImpl, std::allocator<OpenColorIO_v2_5dev::FormatMetadataImpl>>::_Vector_impl_data" = type { ptr, ptr, ptr }
%"class.std::vector.9" = type { %"struct.std::_Vector_base.10" }
%"struct.std::_Vector_base.10" = type { %"struct.std::_Vector_base<double, std::allocator<double>>::_Vector_impl" }
%"struct.std::_Vector_base<double, std::allocator<double>>::_Vector_impl" = type { %"struct.std::_Vector_base<double, std::allocator<double>>::_Vector_impl_data" }
%"struct.std::_Vector_base<double, std::allocator<double>>::_Vector_impl_data" = type { ptr, ptr, ptr }

; Function Attrs: mustprogress nounwind uwtable
define linkonce_odr hidden void @_ZN19OpenColorIO_v2_5dev19FixedFunctionOpData8setStyleENS0_5StyleE(ptr noundef nonnull align 8 dereferenceable(200) %0, i32 noundef %1) #2 comdat align 2 {
  %3 = alloca ptr, align 8
  %4 = alloca i32, align 4
  store ptr %0, ptr %3, align 8, !tbaa !29
  store i32 %1, ptr %4, align 4, !tbaa !3
  %5 = load ptr, ptr %3, align 8
  %6 = load i32, ptr %4, align 4, !tbaa !3
  %7 = getelementptr inbounds nuw %"class.OpenColorIO_v2_5dev::FixedFunctionOpData", ptr %5, i32 0, i32 1
  store i32 %6, ptr %7, align 8, !tbaa !31
  ret void
}

; Function Attrs: mustprogress nounwind uwtable
define linkonce_odr hidden noundef i32 @_ZNK19OpenColorIO_v2_5dev19FixedFunctionOpData8getStyleEv(ptr noundef nonnull align 8 dereferenceable(200) %0) #2 comdat align 2 {
  %2 = alloca ptr, align 8
  store ptr %0, ptr %2, align 8, !tbaa !29
  %3 = load ptr, ptr %2, align 8
  %4 = getelementptr inbounds nuw %"class.OpenColorIO_v2_5dev::FixedFunctionOpData", ptr %3, i32 0, i32 1
  %5 = load i32, ptr %4, align 8, !tbaa !31
  ret i32 %5
}

; Function Attrs: mustprogress nounwind uwtable
define hidden void @_ZN19OpenColorIO_v2_5dev19FixedFunctionOpData6invertEv(ptr noundef nonnull align 8 dereferenceable(200) %0) #2 align 2 {
  %2 = alloca ptr, align 8
  store ptr %0, ptr %2, align 8, !tbaa !29
  %3 = load ptr, ptr %2, align 8
  %4 = call noundef i32 @_ZNK19OpenColorIO_v2_5dev19FixedFunctionOpData8getStyleEv(ptr noundef nonnull align 8 dereferenceable(200) %3) #18
  switch i32 %4, label %41 [
    i32 0, label %5
    i32 1, label %6
    i32 2, label %7
    i32 3, label %8
    i32 4, label %9
    i32 5, label %10
    i32 6, label %11
    i32 7, label %12
    i32 8, label %13
    i32 9, label %14
    i32 10, label %15
    i32 11, label %16
    i32 28, label %17
    i32 29, label %18
    i32 30, label %19
    i32 31, label %20
    i32 32, label %21
    i32 33, label %22
    i32 34, label %23
    i32 35, label %24
    i32 12, label %25
    i32 13, label %26
    i32 14, label %27
    i32 15, label %28
    i32 16, label %29
    i32 17, label %30
    i32 18, label %31
    i32 19, label %32
    i32 20, label %33
    i32 21, label %34
    i32 22, label %35
    i32 23, label %36
    i32 24, label %37
    i32 25, label %38
    i32 26, label %39
    i32 27, label %40
  ]

5:                                                ; preds = %1
  call void @_ZN19OpenColorIO_v2_5dev19FixedFunctionOpData8setStyleENS0_5StyleE(ptr noundef nonnull align 8 dereferenceable(200) %3, i32 noundef 1) #18
  br label %41

6:                                                ; preds = %1
  call void @_ZN19OpenColorIO_v2_5dev19FixedFunctionOpData8setStyleENS0_5StyleE(ptr noundef nonnull align 8 dereferenceable(200) %3, i32 noundef 0) #18
  br label %41

7:                                                ; preds = %1
  call void @_ZN19OpenColorIO_v2_5dev19FixedFunctionOpData8setStyleENS0_5StyleE(ptr noundef nonnull align 8 dereferenceable(200) %3, i32 noundef 3) #18
  br label %41

8:                                                ; preds = %1
  call void @_ZN19OpenColorIO_v2_5dev19FixedFunctionOpData8setStyleENS0_5StyleE(ptr noundef nonnull align 8 dereferenceable(200) %3, i32 noundef 2) #18
  br label %41

9:                                                ; preds = %1
  call void @_ZN19OpenColorIO_v2_5dev19FixedFunctionOpData8setStyleENS0_5StyleE(ptr noundef nonnull align 8 dereferenceable(200) %3, i32 noundef 5) #18
  br label %41

10:                                               ; preds = %1
  call void @_ZN19OpenColorIO_v2_5dev19FixedFunctionOpData8setStyleENS0_5StyleE(ptr noundef nonnull align 8 dereferenceable(200) %3, i32 noundef 4) #18
  br label %41

11:                                               ; preds = %1
  call void @_ZN19OpenColorIO_v2_5dev19FixedFunctionOpData8setStyleENS0_5StyleE(ptr noundef nonnull align 8 dereferenceable(200) %3, i32 noundef 7) #18
  br label %41

12:                                               ; preds = %1
  call void @_ZN19OpenColorIO_v2_5dev19FixedFunctionOpData8setStyleENS0_5StyleE(ptr noundef nonnull align 8 dereferenceable(200) %3, i32 noundef 6) #18
  br label %41

13:                                               ; preds = %1
  call void @_ZN19OpenColorIO_v2_5dev19FixedFunctionOpData8setStyleENS0_5StyleE(ptr noundef nonnull align 8 dereferenceable(200) %3, i32 noundef 9) #18
  br label %41

14:                                               ; preds = %1
  call void @_ZN19OpenColorIO_v2_5dev19FixedFunctionOpData8setStyleENS0_5StyleE(ptr noundef nonnull align 8 dereferenceable(200) %3, i32 noundef 8) #18
  br label %41

15:                                               ; preds = %1
  call void @_ZN19OpenColorIO_v2_5dev19FixedFunctionOpData8setStyleENS0_5StyleE(ptr noundef nonnull align 8 dereferenceable(200) %3, i32 noundef 11) #18
  br label %41

16:                                               ; preds = %1
  call void @_ZN19OpenColorIO_v2_5dev19FixedFunctionOpData8setStyleENS0_5StyleE(ptr noundef nonnull align 8 dereferenceable(200) %3, i32 noundef 10) #18
  br label %41

17:                                               ; preds = %1
  call void @_ZN19OpenColorIO_v2_5dev19FixedFunctionOpData8setStyleENS0_5StyleE(ptr noundef nonnull align 8 dereferenceable(200) %3, i32 noundef 29) #18
  br label %41

18:                                               ; preds = %1
  call void @_ZN19OpenColorIO_v2_5dev19FixedFunctionOpData8setStyleENS0_5StyleE(ptr noundef nonnull align 8 dereferenceable(200) %3, i32 noundef 28) #18
  br label %41

19:                                               ; preds = %1
  call void @_ZN19OpenColorIO_v2_5dev19FixedFunctionOpData8setStyleENS0_5StyleE(ptr noundef nonnull align 8 dereferenceable(200) %3, i32 noundef 31) #18
  br label %41

20:                                               ; preds = %1
  call void @_ZN19OpenColorIO_v2_5dev19FixedFunctionOpData8setStyleENS0_5StyleE(ptr noundef nonnull align 8 dereferenceable(200) %3, i32 noundef 30) #18
  br label %41

21:                                               ; preds = %1
  call void @_ZN19OpenColorIO_v2_5dev19FixedFunctionOpData8setStyleENS0_5StyleE(ptr noundef nonnull align 8 dereferenceable(200) %3, i32 noundef 33) #18
  br label %41

22:                                               ; preds = %1
  call void @_ZN19OpenColorIO_v2_5dev19FixedFunctionOpData8setStyleENS0_5StyleE(ptr noundef nonnull align 8 dereferenceable(200) %3, i32 noundef 32) #18
  br label %41

23:                                               ; preds = %1
  call void @_ZN19OpenColorIO_v2_5dev19FixedFunctionOpData8setStyleENS0_5StyleE(ptr noundef nonnull align 8 dereferenceable(200) %3, i32 noundef 35) #18
  br label %41

24:                                               ; preds = %1
  call void @_ZN19OpenColorIO_v2_5dev19FixedFunctionOpData8setStyleENS0_5StyleE(ptr noundef nonnull align 8 dereferenceable(200) %3, i32 noundef 34) #18
  br label %41

25:                                               ; preds = %1
  call void @_ZN19OpenColorIO_v2_5dev19FixedFunctionOpData8setStyleENS0_5StyleE(ptr noundef nonnull align 8 dereferenceable(200) %3, i32 noundef 13) #18
  br label %41

26:                                               ; preds = %1
  call void @_ZN19OpenColorIO_v2_5dev19FixedFunctionOpData8setStyleENS0_5StyleE(ptr noundef nonnull align 8 dereferenceable(200) %3, i32 noundef 12) #18
  br label %41

27:                                               ; preds = %1
  call void @_ZN19OpenColorIO_v2_5dev19FixedFunctionOpData8setStyleENS0_5StyleE(ptr noundef nonnull align 8 dereferenceable(200) %3, i32 noundef 15) #18
  br label %41

28:                                               ; preds = %1
  call void @_ZN19OpenColorIO_v2_5dev19FixedFunctionOpData8setStyleENS0_5StyleE(ptr noundef nonnull align 8 dereferenceable(200) %3, i32 noundef 14) #18
  br label %41

29:                                               ; preds = %1
  call void @_ZN19OpenColorIO_v2_5dev19FixedFunctionOpData8setStyleENS0_5StyleE(ptr noundef nonnull align 8 dereferenceable(200) %3, i32 noundef 17) #18
  br label %41

30:                                               ; preds = %1
  call void @_ZN19OpenColorIO_v2_5dev19FixedFunctionOpData8setStyleENS0_5StyleE(ptr noundef nonnull align 8 dereferenceable(200) %3, i32 noundef 16) #18
  br label %41

31:                                               ; preds = %1
  call void @_ZN19OpenColorIO_v2_5dev19FixedFunctionOpData8setStyleENS0_5StyleE(ptr noundef nonnull align 8 dereferenceable(200) %3, i32 noundef 19) #18
  br label %41

32:                                               ; preds = %1
  call void @_ZN19OpenColorIO_v2_5dev19FixedFunctionOpData8setStyleENS0_5StyleE(ptr noundef nonnull align 8 dereferenceable(200) %3, i32 noundef 18) #18
  br label %41

33:                                               ; preds = %1
  call void @_ZN19OpenColorIO_v2_5dev19FixedFunctionOpData8setStyleENS0_5StyleE(ptr noundef nonnull align 8 dereferenceable(200) %3, i32 noundef 21) #18
  br label %41

34:                                               ; preds = %1
  call void @_ZN19OpenColorIO_v2_5dev19FixedFunctionOpData8setStyleENS0_5StyleE(ptr noundef nonnull align 8 dereferenceable(200) %3, i32 noundef 20) #18
  br label %41

35:                                               ; preds = %1
  call void @_ZN19OpenColorIO_v2_5dev19FixedFunctionOpData8setStyleENS0_5StyleE(ptr noundef nonnull align 8 dereferenceable(200) %3, i32 noundef 23) #18
  br label %41

36:                                               ; preds = %1
  call void @_ZN19OpenColorIO_v2_5dev19FixedFunctionOpData8setStyleENS0_5StyleE(ptr noundef nonnull align 8 dereferenceable(200) %3, i32 noundef 22) #18
  br label %41

37:                                               ; preds = %1
  call void @_ZN19OpenColorIO_v2_5dev19FixedFunctionOpData8setStyleENS0_5StyleE(ptr noundef nonnull align 8 dereferenceable(200) %3, i32 noundef 25) #18
  br label %41

38:                                               ; preds = %1
  call void @_ZN19OpenColorIO_v2_5dev19FixedFunctionOpData8setStyleENS0_5StyleE(ptr noundef nonnull align 8 dereferenceable(200) %3, i32 noundef 24) #18
  br label %41

39:                                               ; preds = %1
  call void @_ZN19OpenColorIO_v2_5dev19FixedFunctionOpData8setStyleENS0_5StyleE(ptr noundef nonnull align 8 dereferenceable(200) %3, i32 noundef 27) #18
  br label %41

40:                                               ; preds = %1
  call void @_ZN19OpenColorIO_v2_5dev19FixedFunctionOpData8setStyleENS0_5StyleE(ptr noundef nonnull align 8 dereferenceable(200) %3, i32 noundef 26) #18
  br label %41

41:                                               ; preds = %1, %40, %39, %38, %37, %36, %35, %34, %33, %32, %31, %30, %29, %28, %27, %26, %25, %24, %23, %22, %21, %20, %19, %18, %17, %16, %15, %14, %13, %12, %11, %10, %9, %8, %7, %6, %5
  ret void
}