; Function Attrs: mustprogress nofree norecurse nosync nounwind willreturn memory(argmem: readwrite) uwtable
define hidden void @_ZN19OpenColorIO_v2_5dev19FixedFunctionOpData6invertEv(ptr noundef nonnull align 8 captures(none) dereferenceable(200) %0) local_unnamed_addr #8 align 2 {
  %2 = getelementptr inbounds nuw i8, ptr %0, i64 168
  %3 = load i32, ptr %2, align 8, !tbaa !15
  %4 = icmp ult i32 %3, 36
  br i1 %4, label %switch.lookup, label %6

switch.lookup:                                    ; preds = %1
  %5 = zext nneg i32 %3 to i64
  %switch.gep = getelementptr inbounds nuw [36 x i32], ptr @switch.table._ZN19OpenColorIO_v2_5dev19FixedFunctionOpData12setDirectionENS_18TransformDirectionE.1, i64 0, i64 %5
  %switch.load = load i32, ptr %switch.gep, align 4
  store i32 %switch.load, ptr %2, align 8, !tbaa !15
  br label %6

6:                                                ; preds = %1, %switch.lookup
  ret void
}